---
triple:          'x86_64-apple-darwin'
binary-path:     test-program
relocations:
  - { offset: 0x31A1, size: 0x8, addend: 0x0, symName: __ZNSt3__16chronoplB8ne190104INS0_12steady_clockENS0_8durationIxNS_5ratioILl1ELl1000000000EEEEExNS4_ILl1ELl1EEEEENS0_10time_pointIT_NS_11common_typeIJT0_NS3_IT1_T2_EEEE4typeEEERKNS8_IS9_SB_EERKSE_, symObjAddr: 0xB0, symBinAddr: 0x100000E40, symSize: 0x50 }
  - { offset: 0x3509, size: 0x8, addend: 0x0, symName: __ZNSt3__16chronoplB8ne190104IxNS_5ratioILl1ELl1000000000EEExNS2_ILl1ELl1EEEEENS_11common_typeIJNS0_8durationIT_T0_EENS6_IT1_T2_EEEE4typeERKS9_RKSC_, symObjAddr: 0x360, symBinAddr: 0x1000010F0, symSize: 0x70 }
  - { offset: 0x35C1, size: 0x8, addend: 0x0, symName: __ZNSt3__16chronoltB8ne190104INS0_12steady_clockENS0_8durationIxNS_5ratioILl1ELl1000000000EEEEES6_EEbRKNS0_10time_pointIT_T0_EERKNS7_IS8_T1_EE, symObjAddr: 0x130, symBinAddr: 0x100000EC0, symSize: 0x40 }
  - { offset: 0x3616, size: 0x8, addend: 0x0, symName: __ZNSt3__16chrono13duration_castB8ne190104INS0_8durationIxNS_5ratioILl1ELl1000000000EEEEExNS3_ILl1ELl1EEETnNS_9enable_ifIXsr13__is_durationIT_EE5valueEiE4typeELi0EEES8_RKNS2_IT0_T1_EE, symObjAddr: 0x4E0, symBinAddr: 0x100001270, symSize: 0x30 }
  - { offset: 0x3663, size: 0x8, addend: 0x0, symName: __ZNSt3__16chronoltB8ne190104IxNS_5ratioILl1ELl1000000000EEExS3_EEbRKNS0_8durationIT_T0_EERKNS4_IT1_T2_EE, symObjAddr: 0x5D0, symBinAddr: 0x100001360, symSize: 0x30 }
  - { offset: 0x38E9, size: 0x8, addend: 0x0, symName: __ZNSt3__124__put_character_sequenceB8ne190104IcNS_11char_traitsIcEEEERNS_13basic_ostreamIT_T0_EES7_PKS4_m, symObjAddr: 0x640, symBinAddr: 0x1000013D0, symSize: 0x1B0 }
  - { offset: 0x47D8, size: 0x8, addend: 0x0, symName: __ZNSt3__16__math3sinB8ne190104IiTnNS_9enable_ifIXsr11is_integralIT_EE5valueEiE4typeELi0EEEdS3_, symObjAddr: 0x170, symBinAddr: 0x100000F00, symSize: 0x20 }
  - { offset: 0x4813, size: 0x8, addend: 0x0, symName: __ZNSt3__16__math3cosB8ne190104IiTnNS_9enable_ifIXsr11is_integralIT_EE5valueEiE4typeELi0EEEdS3_, symObjAddr: 0x190, symBinAddr: 0x100000F20, symSize: 0x20 }
  - { offset: 0x48A8, size: 0x8, addend: 0x0, symName: __ZNSt3__1lsB8ne190104INS_11char_traitsIcEEEERNS_13basic_ostreamIcT_EES6_PKc, symObjAddr: 0x2B0, symBinAddr: 0x100001040, symSize: 0x40 }
  - { offset: 0x48EE, size: 0x8, addend: 0x0, symName: __ZNSt3__14endlB8ne190104IcNS_11char_traitsIcEEEERNS_13basic_ostreamIT_T0_EES7_, symObjAddr: 0x310, symBinAddr: 0x1000010A0, symSize: 0x50 }
  - { offset: 0x492E, size: 0x8, addend: 0x0, symName: __ZNSt3__116__pad_and_outputB8ne190104IcNS_11char_traitsIcEEEENS_19ostreambuf_iteratorIT_T0_EES6_PKS4_S8_S8_RNS_8ios_baseES4_, symObjAddr: 0x830, symBinAddr: 0x1000015C0, symSize: 0x1E0 }
  - { offset: 0x49FE, size: 0x8, addend: 0x0, symName: __ZNSt3__112__to_addressB8ne190104IcEEPT_S2_, symObjAddr: 0xD10, symBinAddr: 0x100001AA0, symSize: 0x10 }
  - { offset: 0x4A66, size: 0x8, addend: 0x0, symName: __ZNSt3__19use_facetB8ne190104INS_5ctypeIcEEEERKT_RKNS_6localeE, symObjAddr: 0xFE0, symBinAddr: 0x100001D70, symSize: 0x30 }
  - { offset: 0x4F33, size: 0x8, addend: 0x0, symName: __ZNSt3__118__constexpr_strlenB8ne190104IcEEmPKT_, symObjAddr: 0x1070, symBinAddr: 0x100001E00, symSize: 0x1B }
  - { offset: 0x5E41, size: 0x8, addend: 0x0, symName: __ZNKSt3__16chrono15__duration_castINS0_8durationIxNS_5ratioILl1ELl1EEEEENS2_IxNS3_ILl1ELl1000000000EEEEENS3_ILl1000000000ELl1EEELb0ELb1EEclB8ne190104ERKS5_, symObjAddr: 0x510, symBinAddr: 0x1000012A0, symSize: 0x40 }
  - { offset: 0x5F97, size: 0x8, addend: 0x0, symName: __Z15longRunningLoopi, symObjAddr: 0x0, symBinAddr: 0x100000D90, symSize: 0xB0 }
  - { offset: 0x600F, size: 0x8, addend: 0x0, symName: __ZNSt3__16chrono8durationIxNS_5ratioILl1ELl1EEEEC1B8ne190104IiTnNS_9enable_ifIXaasr14is_convertibleIRKT_xEE5valueooL_ZNS_17integral_constantIbLb0EE5valueEEntsr23treat_as_floating_pointIS7_EE5valueEiE4typeELi0EEES9_, symObjAddr: 0x100, symBinAddr: 0x100000E90, symSize: 0x30 }
  - { offset: 0x6054, size: 0x8, addend: 0x0, symName: _main, symObjAddr: 0x1B0, symBinAddr: 0x100000F40, symSize: 0x100 }
  - { offset: 0x608A, size: 0x8, addend: 0x0, symName: __ZNSt3__113basic_ostreamIcNS_11char_traitsIcEEElsB8ne190104EPFRS3_S4_E, symObjAddr: 0x2F0, symBinAddr: 0x100001080, symSize: 0x20 }
  - { offset: 0x60BC, size: 0x8, addend: 0x0, symName: __ZNKSt3__16chrono10time_pointINS0_12steady_clockENS0_8durationIxNS_5ratioILl1ELl1000000000EEEEEE16time_since_epochB8ne190104Ev, symObjAddr: 0x3D0, symBinAddr: 0x100001160, symSize: 0x20 }
  - { offset: 0x60E0, size: 0x8, addend: 0x0, symName: __ZNSt3__16chrono10time_pointINS0_12steady_clockENS0_8durationIxNS_5ratioILl1ELl1000000000EEEEEEC1B8ne190104ERKS6_, symObjAddr: 0x3F0, symBinAddr: 0x100001180, symSize: 0x30 }
  - { offset: 0x6116, size: 0x8, addend: 0x0, symName: __ZNKSt3__16chrono8durationIxNS_5ratioILl1ELl1000000000EEEE5countB8ne190104Ev, symObjAddr: 0x420, symBinAddr: 0x1000011B0, symSize: 0x20 }
  - { offset: 0x613A, size: 0x8, addend: 0x0, symName: __ZNSt3__16chrono8durationIxNS_5ratioILl1ELl1000000000EEEEC1B8ne190104IxNS2_ILl1ELl1EEETnNS_9enable_ifIXaasr13__no_overflowIT0_S3_EE5valueooL_ZNS_17integral_constantIbLb0EE5valueEEaaeqsr13__no_overflowIS8_S3_E4typeE3denLi1Entsr23treat_as_floating_pointIT_EE5valueEiE4typeELi0EEERKNS1_ISB_S8_EE, symObjAddr: 0x440, symBinAddr: 0x1000011D0, symSize: 0x30 }
  - { offset: 0x6192, size: 0x8, addend: 0x0, symName: __ZNSt3__16chrono8durationIxNS_5ratioILl1ELl1000000000EEEEC1B8ne190104IxTnNS_9enable_ifIXaasr14is_convertibleIRKT_xEE5valueooL_ZNS_17integral_constantIbLb0EE5valueEEntsr23treat_as_floating_pointIS7_EE5valueEiE4typeELi0EEES9_, symObjAddr: 0x470, symBinAddr: 0x100001200, symSize: 0x30 }
  - { offset: 0x61D7, size: 0x8, addend: 0x0, symName: __ZNSt3__16chrono8durationIxNS_5ratioILl1ELl1000000000EEEEC2B8ne190104IxNS2_ILl1ELl1EEETnNS_9enable_ifIXaasr13__no_overflowIT0_S3_EE5valueooL_ZNS_17integral_constantIbLb0EE5valueEEaaeqsr13__no_overflowIS8_S3_E4typeE3denLi1Entsr23treat_as_floating_pointIT_EE5valueEiE4typeELi0EEERKNS1_ISB_S8_EE, symObjAddr: 0x4A0, symBinAddr: 0x100001230, symSize: 0x40 }
  - { offset: 0x6225, size: 0x8, addend: 0x0, symName: __ZNKSt3__16chrono8durationIxNS_5ratioILl1ELl1EEEE5countB8ne190104Ev, symObjAddr: 0x550, symBinAddr: 0x1000012E0, symSize: 0x20 }
  - { offset: 0x6249, size: 0x8, addend: 0x0, symName: __ZNSt3__16chrono8durationIxNS_5ratioILl1ELl1000000000EEEEC2B8ne190104IxTnNS_9enable_ifIXaasr14is_convertibleIRKT_xEE5valueooL_ZNS_17integral_constantIbLb0EE5valueEEntsr23treat_as_floating_pointIS7_EE5valueEiE4typeELi0EEES9_, symObjAddr: 0x570, symBinAddr: 0x100001300, symSize: 0x20 }
  - { offset: 0x628E, size: 0x8, addend: 0x0, symName: __ZNSt3__16chrono10time_pointINS0_12steady_clockENS0_8durationIxNS_5ratioILl1ELl1000000000EEEEEEC2B8ne190104ERKS6_, symObjAddr: 0x590, symBinAddr: 0x100001320, symSize: 0x20 }
  - { offset: 0x62C4, size: 0x8, addend: 0x0, symName: __ZNSt3__16chrono8durationIxNS_5ratioILl1ELl1EEEEC2B8ne190104IiTnNS_9enable_ifIXaasr14is_convertibleIRKT_xEE5valueooL_ZNS_17integral_constantIbLb0EE5valueEEntsr23treat_as_floating_pointIS7_EE5valueEiE4typeELi0EEES9_, symObjAddr: 0x5B0, symBinAddr: 0x100001340, symSize: 0x20 }
  - { offset: 0x6313, size: 0x8, addend: 0x0, symName: __ZNKSt3__16chrono13__duration_ltINS0_8durationIxNS_5ratioILl1ELl1000000000EEEEES5_EclB8ne190104ERKS5_S8_, symObjAddr: 0x600, symBinAddr: 0x100001390, symSize: 0x40 }
  - { offset: 0x6355, size: 0x8, addend: 0x0, symName: __ZNSt3__111char_traitsIcE6lengthB8ne190104EPKc, symObjAddr: 0x7F0, symBinAddr: 0x100001580, symSize: 0x20 }
  - { offset: 0x6395, size: 0x8, addend: 0x0, symName: __ZNKSt3__113basic_ostreamIcNS_11char_traitsIcEEE6sentrycvbB8ne190104Ev, symObjAddr: 0x810, symBinAddr: 0x1000015A0, symSize: 0x20 }
  - { offset: 0x63B9, size: 0x8, addend: 0x0, symName: __ZNSt3__119ostreambuf_iteratorIcNS_11char_traitsIcEEEC1B8ne190104ERNS_13basic_ostreamIcS2_EE, symObjAddr: 0xA10, symBinAddr: 0x1000017A0, symSize: 0x30 }
  - { offset: 0x63EF, size: 0x8, addend: 0x0, symName: __ZNKSt3__18ios_base5flagsB8ne190104Ev, symObjAddr: 0xA40, symBinAddr: 0x1000017D0, symSize: 0x20 }
  - { offset: 0x6415, size: 0x8, addend: 0x0, symName: __ZNKSt3__19basic_iosIcNS_11char_traitsIcEEE4fillB8ne190104Ev, symObjAddr: 0xA60, symBinAddr: 0x1000017F0, symSize: 0x60 }
  - { offset: 0x6439, size: 0x8, addend: 0x0, symName: __ZNKSt3__119ostreambuf_iteratorIcNS_11char_traitsIcEEE6failedB8ne190104Ev, symObjAddr: 0xAC0, symBinAddr: 0x100001850, symSize: 0x20 }
  - { offset: 0x645D, size: 0x8, addend: 0x0, symName: __ZNSt3__19basic_iosIcNS_11char_traitsIcEEE8setstateB8ne190104Ej, symObjAddr: 0xAE0, symBinAddr: 0x100001870, symSize: 0x30 }
  - { offset: 0x6490, size: 0x8, addend: 0x0, symName: __ZNKSt3__18ios_base5widthB8ne190104Ev, symObjAddr: 0xB20, symBinAddr: 0x1000018B0, symSize: 0x20 }
  - { offset: 0x64B6, size: 0x8, addend: 0x0, symName: __ZNSt3__115basic_streambufIcNS_11char_traitsIcEEE5sputnB8ne190104EPKcl, symObjAddr: 0xB40, symBinAddr: 0x1000018D0, symSize: 0x30 }
  - { offset: 0x64F6, size: 0x8, addend: 0x0, symName: __ZNSt3__112basic_stringIcNS_11char_traitsIcEENS_9allocatorIcEEEC1B8ne190104Emc, symObjAddr: 0xB70, symBinAddr: 0x100001900, symSize: 0x30 }
  - { offset: 0x653C, size: 0x8, addend: 0x0, symName: __ZNSt3__112basic_stringIcNS_11char_traitsIcEENS_9allocatorIcEEE4dataB8ne190104Ev, symObjAddr: 0xBA0, symBinAddr: 0x100001930, symSize: 0x30 }
  - { offset: 0x6560, size: 0x8, addend: 0x0, symName: __ZNSt3__18ios_base5widthB8ne190104El, symObjAddr: 0xBD0, symBinAddr: 0x100001960, symSize: 0x30 }
  - { offset: 0x65A4, size: 0x8, addend: 0x0, symName: __ZNSt3__112basic_stringIcNS_11char_traitsIcEENS_9allocatorIcEEEC2B8ne190104Emc, symObjAddr: 0xC00, symBinAddr: 0x100001990, symSize: 0x50 }
  - { offset: 0x65EF, size: 0x8, addend: 0x0, symName: __ZNSt3__117__compressed_pairINS_12basic_stringIcNS_11char_traitsIcEENS_9allocatorIcEEE5__repES5_EC1B8ne190104INS_18__default_init_tagESA_EEOT_OT0_, symObjAddr: 0xC50, symBinAddr: 0x1000019E0, symSize: 0x30 }
  - { offset: 0x6645, size: 0x8, addend: 0x0, symName: __ZNSt3__117__compressed_pairINS_12basic_stringIcNS_11char_traitsIcEENS_9allocatorIcEEE5__repES5_EC2B8ne190104INS_18__default_init_tagESA_EEOT_OT0_, symObjAddr: 0xC80, symBinAddr: 0x100001A10, symSize: 0x30 }
  - { offset: 0x669B, size: 0x8, addend: 0x0, symName: __ZNSt3__122__compressed_pair_elemINS_12basic_stringIcNS_11char_traitsIcEENS_9allocatorIcEEE5__repELi0ELb0EEC2B8ne190104ENS_18__default_init_tagE, symObjAddr: 0xCB0, symBinAddr: 0x100001A40, symSize: 0x10 }
  - { offset: 0x66CD, size: 0x8, addend: 0x0, symName: __ZNSt3__122__compressed_pair_elemINS_9allocatorIcEELi1ELb1EEC2B8ne190104ENS_18__default_init_tagE, symObjAddr: 0xCC0, symBinAddr: 0x100001A50, symSize: 0x20 }
  - { offset: 0x66FF, size: 0x8, addend: 0x0, symName: __ZNSt3__19allocatorIcEC2B8ne190104Ev, symObjAddr: 0xCE0, symBinAddr: 0x100001A70, symSize: 0x20 }
  - { offset: 0x6727, size: 0x8, addend: 0x0, symName: __ZNSt3__116__non_trivial_ifILb1ENS_9allocatorIcEEEC2B8ne190104Ev, symObjAddr: 0xD00, symBinAddr: 0x100001A90, symSize: 0x10 }
  - { offset: 0x674F, size: 0x8, addend: 0x0, symName: __ZNSt3__112basic_stringIcNS_11char_traitsIcEENS_9allocatorIcEEE13__get_pointerB8ne190104Ev, symObjAddr: 0xD20, symBinAddr: 0x100001AB0, symSize: 0x50 }
  - { offset: 0x6773, size: 0x8, addend: 0x0, symName: __ZNKSt3__112basic_stringIcNS_11char_traitsIcEENS_9allocatorIcEEE9__is_longB8ne190104Ev, symObjAddr: 0xD70, symBinAddr: 0x100001B00, symSize: 0x30 }
  - { offset: 0x6797, size: 0x8, addend: 0x0, symName: __ZNSt3__112basic_stringIcNS_11char_traitsIcEENS_9allocatorIcEEE18__get_long_pointerB8ne190104Ev, symObjAddr: 0xDA0, symBinAddr: 0x100001B30, symSize: 0x20 }
  - { offset: 0x67BB, size: 0x8, addend: 0x0, symName: __ZNSt3__112basic_stringIcNS_11char_traitsIcEENS_9allocatorIcEEE19__get_short_pointerB8ne190104Ev, symObjAddr: 0xDC0, symBinAddr: 0x100001B50, symSize: 0x30 }
  - { offset: 0x67DF, size: 0x8, addend: 0x0, symName: __ZNKSt3__117__compressed_pairINS_12basic_stringIcNS_11char_traitsIcEENS_9allocatorIcEEE5__repES5_E5firstB8ne190104Ev, symObjAddr: 0xDF0, symBinAddr: 0x100001B80, symSize: 0x20 }
  - { offset: 0x6803, size: 0x8, addend: 0x0, symName: __ZNKSt3__122__compressed_pair_elemINS_12basic_stringIcNS_11char_traitsIcEENS_9allocatorIcEEE5__repELi0ELb0EE5__getB8ne190104Ev, symObjAddr: 0xE10, symBinAddr: 0x100001BA0, symSize: 0x10 }
  - { offset: 0x6827, size: 0x8, addend: 0x0, symName: __ZNSt3__117__compressed_pairINS_12basic_stringIcNS_11char_traitsIcEENS_9allocatorIcEEE5__repES5_E5firstB8ne190104Ev, symObjAddr: 0xE20, symBinAddr: 0x100001BB0, symSize: 0x20 }
  - { offset: 0x684B, size: 0x8, addend: 0x0, symName: __ZNSt3__122__compressed_pair_elemINS_12basic_stringIcNS_11char_traitsIcEENS_9allocatorIcEEE5__repELi0ELb0EE5__getB8ne190104Ev, symObjAddr: 0xE40, symBinAddr: 0x100001BD0, symSize: 0x10 }
  - { offset: 0x686F, size: 0x8, addend: 0x0, symName: __ZNSt3__114pointer_traitsIPcE10pointer_toB8ne190104ERc, symObjAddr: 0xE50, symBinAddr: 0x100001BE0, symSize: 0x10 }
  - { offset: 0x6891, size: 0x8, addend: 0x0, symName: __ZNSt3__119ostreambuf_iteratorIcNS_11char_traitsIcEEEC2B8ne190104ERNS_13basic_ostreamIcS2_EE, symObjAddr: 0xE60, symBinAddr: 0x100001BF0, symSize: 0x50 }
  - { offset: 0x68C7, size: 0x8, addend: 0x0, symName: __ZNKSt3__19basic_iosIcNS_11char_traitsIcEEE5rdbufB8ne190104Ev, symObjAddr: 0xEB0, symBinAddr: 0x100001C40, symSize: 0x20 }
  - { offset: 0x68EB, size: 0x8, addend: 0x0, symName: __ZNKSt3__18ios_base5rdbufB8ne190104Ev, symObjAddr: 0xED0, symBinAddr: 0x100001C60, symSize: 0x20 }
  - { offset: 0x690F, size: 0x8, addend: 0x0, symName: __ZNKSt3__118_SentinelValueFillINS_11char_traitsIcEEE8__is_setB8ne190104Ev, symObjAddr: 0xEF0, symBinAddr: 0x100001C80, symSize: 0x30 }
  - { offset: 0x6933, size: 0x8, addend: 0x0, symName: __ZNKSt3__19basic_iosIcNS_11char_traitsIcEEE5widenB8ne190104Ec, symObjAddr: 0xF20, symBinAddr: 0x100001CB0, symSize: 0x80 }
  - { offset: 0x6966, size: 0x8, addend: 0x0, symName: __ZNSt3__118_SentinelValueFillINS_11char_traitsIcEEEaSB8ne190104Ei, symObjAddr: 0xFA0, symBinAddr: 0x100001D30, symSize: 0x20 }
  - { offset: 0x6999, size: 0x8, addend: 0x0, symName: __ZNKSt3__118_SentinelValueFillINS_11char_traitsIcEEE5__getB8ne190104Ev, symObjAddr: 0xFC0, symBinAddr: 0x100001D50, symSize: 0x10 }
  - { offset: 0x69BD, size: 0x8, addend: 0x0, symName: __ZNSt3__111char_traitsIcE3eofB8ne190104Ev, symObjAddr: 0xFD0, symBinAddr: 0x100001D60, symSize: 0x10 }
  - { offset: 0x6A12, size: 0x8, addend: 0x0, symName: __ZNKSt3__15ctypeIcE5widenB8ne190104Ec, symObjAddr: 0x1010, symBinAddr: 0x100001DA0, symSize: 0x30 }
  - { offset: 0x6A45, size: 0x8, addend: 0x0, symName: __ZNSt3__18ios_base8setstateB8ne190104Ej, symObjAddr: 0x1040, symBinAddr: 0x100001DD0, symSize: 0x30 }
...
